; Function Attrs: mustprogress nofree norecurse nosync nounwind willreturn memory(argmem: readwrite) uwtable
define internal void @_get_circle_bounds(ptr nocapture noundef readonly %0, ptr nocapture noundef writeonly %1) #5 {
  %3 = getelementptr inbounds nuw i8, ptr %0, i64 576
  %4 = load float, ptr %3, align 8, !tbaa !179
  %5 = getelementptr inbounds nuw i8, ptr %0, i64 584
  %6 = load float, ptr %5, align 8, !tbaa !181
  %7 = fsub float %4, %6
  %8 = fptosi float %7 to i32
  store i32 %8, ptr %1, align 4, !tbaa !157
  %9 = getelementptr inbounds nuw i8, ptr %0, i64 580
  %10 = load float, ptr %9, align 4, !tbaa !180
  %11 = fsub float %10, %6
  %12 = fptosi float %11 to i32
  %13 = getelementptr inbounds nuw i8, ptr %1, i64 4
  store i32 %12, ptr %13, align 4, !tbaa !158
  %14 = fadd float %4, %6
  %15 = fptosi float %14 to i32
  %16 = getelementptr inbounds nuw i8, ptr %1, i64 8
  store i32 %15, ptr %16, align 4, !tbaa !160
  %17 = fadd float %6, %10
  %18 = fptosi float %17 to i32
  %19 = getelementptr inbounds nuw i8, ptr %1, i64 12
  store i32 %18, ptr %19, align 4, !tbaa !162
  ret void
}